target datalayout = "e-m:e-p270:32:32-p271:32:32-p272:64:64-i64:64-i128:128-f80:128-n8:16:32:64-S128"
target triple = "x86_64-pc-linux-gnu"

%struct.___itt_global = type { [8 x i8], i64, i64, i64, i64, i64, i64, %union.pthread_mutex_t, ptr, ptr, ptr, ptr, ptr, ptr, ptr, ptr, i32, ptr, i32, ptr, ptr }
%union.pthread_mutex_t = type { %struct.__pthread_mutex_s }
%struct.__pthread_mutex_s = type { i32, i32, i32, i32, i32, i16, i16, %struct.__pthread_internal_list }
%struct.__pthread_internal_list = type { ptr, ptr }

@__itt_event_end_ptr__3_0 = global ptr @_ZL24__itt_event_end_init_3_0i, align 8

; Function Attrs: mustprogress sspstrong uwtable
define internal noundef i32 @_ZL24__itt_event_end_init_3_0i(i32 noundef %0) #0 {
  %2 = alloca i32, align 4
  %3 = alloca i32, align 4
  store i32 %0, ptr %3, align 4, !tbaa !25
  %4 = load volatile i64, ptr getelementptr inbounds nuw (%struct.___itt_global, ptr @__itt__ittapi_global, i32 0, i32 4), align 8, !tbaa !3
  %5 = icmp ne i64 %4, 0
  br i1 %5, label %10, label %6

6:                                                ; preds = %1
  %7 = load ptr, ptr getelementptr inbounds nuw (%struct.___itt_global, ptr @__itt__ittapi_global, i32 0, i32 13), align 8, !tbaa !21
  %8 = icmp eq ptr %7, null
  br i1 %8, label %9, label %10

9:                                                ; preds = %6
  call void @ITT_DoOneTimeInitialization()
  br label %10

10:                                               ; preds = %9, %6, %1
  %11 = load ptr, ptr @__itt_event_end_ptr__3_0, align 8, !tbaa !22
  %12 = icmp ne ptr %11, null
  br i1 %12, label %13, label %20

13:                                               ; preds = %10
  %14 = load ptr, ptr @__itt_event_end_ptr__3_0, align 8, !tbaa !22
  %15 = icmp ne ptr %14, @_ZL24__itt_event_end_init_3_0i
  br i1 %15, label %16, label %20

16:                                               ; preds = %13
  %17 = load ptr, ptr @__itt_event_end_ptr__3_0, align 8, !tbaa !22
  %18 = load i32, ptr %3, align 4, !tbaa !25
  %19 = call i32 %17(i32 noundef %18)
  store i32 %19, ptr %2, align 4
  br label %21

20:                                               ; preds = %13, %10
  store i32 0, ptr %2, align 4
  br label %21

21:                                               ; preds = %20, %16
  %22 = load i32, ptr %2, align 4
  ret i32 %22
}